target datalayout = "e-m:e-p270:32:32-p271:32:32-p272:64:64-i64:64-i128:128-f80:128-n8:16:32:64-S128"
target triple = "x86_64-pc-linux-gnu"

%struct.show_ref_data = type { ptr, ptr, i32, i32 }

@.str.49 = private unnamed_addr constant [5 x i8] c"HEAD\00", align 1

; Function Attrs: nounwind uwtable
define internal i32 @show_ref(ptr noundef %0, ptr noundef %1, ptr noundef %2, i32 noundef %3, ptr noundef %4) #0 {
  %6 = alloca i32, align 4
  %7 = alloca ptr, align 8
  %8 = alloca ptr, align 8
  %9 = alloca ptr, align 8
  %10 = alloca i32, align 4
  %11 = alloca ptr, align 8
  %12 = alloca ptr, align 8
  %13 = alloca i32, align 4
  %14 = alloca ptr, align 8
  %15 = alloca ptr, align 8
  %16 = alloca i32, align 4
  %17 = alloca i32, align 4
  store ptr %0, ptr %7, align 8, !tbaa !11
  store ptr %1, ptr %8, align 8, !tbaa !11
  store ptr %2, ptr %9, align 8, !tbaa !62
  store i32 %3, ptr %10, align 4, !tbaa !4
  store ptr %4, ptr %11, align 8, !tbaa !36
  call void @llvm.lifetime.start.p0(i64 8, ptr %12) #10
  %18 = load ptr, ptr %11, align 8, !tbaa !36
  store ptr %18, ptr %12, align 8, !tbaa !68
  %19 = load ptr, ptr %12, align 8, !tbaa !68
  %20 = getelementptr inbounds nuw %struct.show_ref_data, ptr %19, i32 0, i32 3
  %21 = load i32, ptr %20, align 4, !tbaa !59
  %22 = icmp ne i32 %21, 0
  br i1 %22, label %23, label %28

23:                                               ; preds = %5
  %24 = load ptr, ptr %7, align 8, !tbaa !11
  %25 = call i32 @strcmp(ptr noundef %24, ptr noundef @.str.49) #12
  %26 = icmp ne i32 %25, 0
  br i1 %26, label %28, label %27

27:                                               ; preds = %23
  br label %93

28:                                               ; preds = %23, %5
  %29 = load ptr, ptr %12, align 8, !tbaa !68
  %30 = getelementptr inbounds nuw %struct.show_ref_data, ptr %29, i32 0, i32 1
  %31 = load ptr, ptr %30, align 8, !tbaa !55
  %32 = icmp ne ptr %31, null
  br i1 %32, label %33, label %92

33:                                               ; preds = %28
  call void @llvm.lifetime.start.p0(i64 4, ptr %13) #10
  %34 = load ptr, ptr %7, align 8, !tbaa !11
  %35 = call i64 @strlen(ptr noundef %34) #12
  %36 = trunc i64 %35 to i32
  store i32 %36, ptr %13, align 4, !tbaa !4
  call void @llvm.lifetime.start.p0(i64 8, ptr %14) #10
  %37 = load ptr, ptr %12, align 8, !tbaa !68
  %38 = getelementptr inbounds nuw %struct.show_ref_data, ptr %37, i32 0, i32 1
  %39 = load ptr, ptr %38, align 8, !tbaa !55
  store ptr %39, ptr %14, align 8, !tbaa !8
  call void @llvm.lifetime.start.p0(i64 8, ptr %15) #10
  br label %40

40:                                               ; preds = %88, %86, %33
  %41 = load ptr, ptr %14, align 8, !tbaa !8
  %42 = getelementptr inbounds nuw ptr, ptr %41, i32 1
  store ptr %42, ptr %14, align 8, !tbaa !8
  %43 = load ptr, ptr %41, align 8, !tbaa !11
  store ptr %43, ptr %15, align 8, !tbaa !11
  %44 = icmp ne ptr %43, null
  br i1 %44, label %45, label %89

45:                                               ; preds = %40
  call void @llvm.lifetime.start.p0(i64 4, ptr %16) #10
  %46 = load ptr, ptr %15, align 8, !tbaa !11
  %47 = call i64 @strlen(ptr noundef %46) #12
  %48 = trunc i64 %47 to i32
  store i32 %48, ptr %16, align 4, !tbaa !4
  %49 = load i32, ptr %16, align 4, !tbaa !4
  %50 = load i32, ptr %13, align 4, !tbaa !4
  %51 = icmp sgt i32 %49, %50
  br i1 %51, label %52, label %53

52:                                               ; preds = %45
  store i32 3, ptr %17, align 4
  br label %86, !llvm.loop !70

53:                                               ; preds = %45
  %54 = load ptr, ptr %15, align 8, !tbaa !11
  %55 = load ptr, ptr %7, align 8, !tbaa !11
  %56 = load i32, ptr %13, align 4, !tbaa !4
  %57 = sext i32 %56 to i64
  %58 = getelementptr inbounds i8, ptr %55, i64 %57
  %59 = load i32, ptr %16, align 4, !tbaa !4
  %60 = sext i32 %59 to i64
  %61 = sub i64 0, %60
  %62 = getelementptr inbounds i8, ptr %58, i64 %61
  %63 = load i32, ptr %16, align 4, !tbaa !4
  %64 = sext i32 %63 to i64
  %65 = call i32 @memcmp(ptr noundef %54, ptr noundef %62, i64 noundef %64) #12
  %66 = icmp ne i32 %65, 0
  br i1 %66, label %67, label %68

67:                                               ; preds = %53
  store i32 3, ptr %17, align 4
  br label %86, !llvm.loop !70

68:                                               ; preds = %53
  %69 = load i32, ptr %16, align 4, !tbaa !4
  %70 = load i32, ptr %13, align 4, !tbaa !4
  %71 = icmp eq i32 %69, %70
  br i1 %71, label %72, label %73

72:                                               ; preds = %68
  store i32 2, ptr %17, align 4
  br label %86

73:                                               ; preds = %68
  %74 = load ptr, ptr %7, align 8, !tbaa !11
  %75 = load i32, ptr %13, align 4, !tbaa !4
  %76 = load i32, ptr %16, align 4, !tbaa !4
  %77 = sub nsw i32 %75, %76
  %78 = sub nsw i32 %77, 1
  %79 = sext i32 %78 to i64
  %80 = getelementptr inbounds i8, ptr %74, i64 %79
  %81 = load i8, ptr %80, align 1, !tbaa !45
  %82 = sext i8 %81 to i32
  %83 = icmp eq i32 %82, 47
  br i1 %83, label %84, label %85

84:                                               ; preds = %73
  store i32 2, ptr %17, align 4
  br label %86

85:                                               ; preds = %73
  store i32 0, ptr %17, align 4
  br label %86

86:                                               ; preds = %84, %72, %85, %67, %52
  call void @llvm.lifetime.end.p0(i64 4, ptr %16) #10
  %87 = load i32, ptr %17, align 4
  switch i32 %87, label %90 [
    i32 0, label %88
    i32 3, label %40
  ]

88:                                               ; preds = %86
  br label %40, !llvm.loop !70

89:                                               ; preds = %40
  store i32 0, ptr %6, align 4
  store i32 1, ptr %17, align 4
  br label %90

90:                                               ; preds = %89, %86
  call void @llvm.lifetime.end.p0(i64 8, ptr %15) #10
  call void @llvm.lifetime.end.p0(i64 8, ptr %14) #10
  call void @llvm.lifetime.end.p0(i64 4, ptr %13) #10
  %91 = load i32, ptr %17, align 4
  switch i32 %91, label %103 [
    i32 2, label %93
  ]

92:                                               ; preds = %28
  br label %93

93:                                               ; preds = %92, %90, %27
  %94 = load ptr, ptr %12, align 8, !tbaa !68
  %95 = getelementptr inbounds nuw %struct.show_ref_data, ptr %94, i32 0, i32 2
  %96 = load i32, ptr %95, align 8, !tbaa !56
  %97 = add nsw i32 %96, 1
  store i32 %97, ptr %95, align 8, !tbaa !56
  %98 = load ptr, ptr %12, align 8, !tbaa !68
  %99 = getelementptr inbounds nuw %struct.show_ref_data, ptr %98, i32 0, i32 0
  %100 = load ptr, ptr %99, align 8, !tbaa !53
  %101 = load ptr, ptr %7, align 8, !tbaa !11
  %102 = load ptr, ptr %9, align 8, !tbaa !62
  call void @show_one(ptr noundef %100, ptr noundef %101, ptr noundef %102)
  store i32 0, ptr %6, align 4
  store i32 1, ptr %17, align 4
  br label %103

103:                                              ; preds = %93, %90
  call void @llvm.lifetime.end.p0(i64 8, ptr %12) #10
  %104 = load i32, ptr %6, align 4
  ret i32 %104
}