; Function Attrs: nounwind uwtable
define internal noundef i32 @show_ref(ptr noundef %0, ptr readnone captures(none) %1, ptr noundef %2, i32 %3, ptr noundef captures(none) %4) #0 {
  %6 = getelementptr inbounds nuw i8, ptr %4, i64 20
  %7 = load i32, ptr %6, align 4, !tbaa !43
  %.not = icmp eq i32 %7, 0
  br i1 %.not, label %10, label %8

8:                                                ; preds = %5
  %9 = tail call i32 @strcmp(ptr noundef nonnull dereferenceable(1) %0, ptr noundef nonnull dereferenceable(5) @.str.49) #13
  %.not33 = icmp eq i32 %9, 0
  br i1 %.not33, label %.thread40, label %10

10:                                               ; preds = %8, %5
  %11 = getelementptr inbounds nuw i8, ptr %4, i64 8
  %12 = load ptr, ptr %11, align 8, !tbaa !39
  %.not34 = icmp eq ptr %12, null
  br i1 %.not34, label %.thread40, label %13

13:                                               ; preds = %10
  %14 = tail call i64 @strlen(ptr noundef nonnull dereferenceable(1) %0) #13
  %15 = trunc i64 %14 to i32
  %16 = load ptr, ptr %12, align 8, !tbaa !32
  %.not3543 = icmp eq ptr %16, null
  br i1 %.not3543, label %.loopexit, label %.lr.ph

.lr.ph:                                           ; preds = %13
  %sext = shl i64 %14, 32
  %17 = ashr exact i64 %sext, 32
  %18 = getelementptr inbounds i8, ptr %0, i64 %17
  br label %19

19:                                               ; preds = %.lr.ph, %38
  %20 = phi ptr [ %16, %.lr.ph ], [ %39, %38 ]
  %.pn = phi ptr [ %12, %.lr.ph ], [ %21, %38 ]
  %21 = getelementptr inbounds nuw i8, ptr %.pn, i64 8
  %22 = tail call i64 @strlen(ptr noundef nonnull dereferenceable(1) %20) #13
  %23 = trunc i64 %22 to i32
  %24 = icmp sgt i32 %23, %15
  br i1 %24, label %38, label %25, !llvm.loop !52

25:                                               ; preds = %19
  %sext36 = shl i64 %22, 32
  %26 = ashr exact i64 %sext36, 32
  %27 = sub nsw i64 0, %26
  %28 = getelementptr inbounds i8, ptr %18, i64 %27
  %bcmp = tail call i32 @bcmp(ptr nonnull %20, ptr nonnull %28, i64 %26)
  %.not37 = icmp eq i32 %bcmp, 0
  br i1 %.not37, label %29, label %38, !llvm.loop !52

29:                                               ; preds = %25
  %30 = icmp eq i32 %23, %15
  br i1 %30, label %.thread40, label %31

31:                                               ; preds = %29
  %32 = xor i64 %22, -1
  %33 = add i64 %14, %32
  %sext38 = shl i64 %33, 32
  %34 = ashr exact i64 %sext38, 32
  %35 = getelementptr inbounds i8, ptr %0, i64 %34
  %36 = load i8, ptr %35, align 1, !tbaa !28
  %37 = icmp eq i8 %36, 47
  br i1 %37, label %.thread40, label %38

38:                                               ; preds = %31, %25, %19
  %39 = load ptr, ptr %21, align 8, !tbaa !32
  %.not35 = icmp eq ptr %39, null
  br i1 %.not35, label %.loopexit, label %19

.thread40:                                        ; preds = %29, %31, %10, %8
  %40 = getelementptr inbounds nuw i8, ptr %4, i64 16
  %41 = load i32, ptr %40, align 8, !tbaa !40
  %42 = add nsw i32 %41, 1
  store i32 %42, ptr %40, align 8, !tbaa !40
  %43 = load ptr, ptr %4, align 8, !tbaa !35
  tail call fastcc void @show_one(ptr noundef %43, ptr noundef %0, ptr noundef %2)
  br label %.loopexit

.loopexit:                                        ; preds = %38, %13, %.thread40
  ret i32 0
}